; Function Attrs: mustprogress uwtable
define void @_ZN4cvc56parser11ParserState10defineTypeERKNSt7__cxx1112basic_stringIcSt11char_traitsIcESaIcEEERKNS_4SortEb(ptr nocapture noundef nonnull readonly align 8 dereferenceable(168) %this, ptr noundef nonnull align 8 dereferenceable(32) %name, ptr nocapture noundef nonnull readonly align 8 dereferenceable(24) %type, i1 noundef zeroext %skipExisting) local_unnamed_addr #3 align 2 personality ptr @__gxx_personality_v0 {
entry:
  %agg.tmp = alloca %"class.cvc5::Sort", align 16
  br i1 %skipExisting, label %land.lhs.true, label %if.end

land.lhs.true:                                    ; preds = %entry
  %d_symtab3.i = getelementptr inbounds i8, ptr %this, i64 32
  %0 = load ptr, ptr %d_symtab3.i, align 8
  %call4.i = tail call noundef zeroext i1 @_ZNK4cvc58internal6parser11SymbolTable11isBoundTypeERKNSt7__cxx1112basic_stringIcSt11char_traitsIcESaIcEEE(ptr noundef nonnull align 8 dereferenceable(8) %0, ptr noundef nonnull align 8 dereferenceable(32) %name)
  br i1 %call4.i, label %return, label %if.end

if.end:                                           ; preds = %land.lhs.true, %entry
  %d_symtab = getelementptr inbounds i8, ptr %this, i64 32
  %1 = load ptr, ptr %d_symtab, align 8
  %2 = load <2 x ptr>, ptr %type, align 8
  store <2 x ptr> %2, ptr %agg.tmp, align 16
  %_M_refcount.i.i.i = getelementptr inbounds i8, ptr %agg.tmp, i64 16
  %_M_refcount3.i.i.i = getelementptr inbounds i8, ptr %type, i64 16
  %3 = load ptr, ptr %_M_refcount3.i.i.i, align 8
  store ptr %3, ptr %_M_refcount.i.i.i, align 16
  %cmp.not.i.i.i.i = icmp eq ptr %3, null
  br i1 %cmp.not.i.i.i.i, label %_ZN4cvc54SortC2ERKS0_.exit, label %if.then.i.i.i.i

if.then.i.i.i.i:                                  ; preds = %if.end
  %_M_use_count.i.i.i.i.i = getelementptr inbounds i8, ptr %3, i64 8
  %4 = load i8, ptr @__libc_single_threaded, align 1
  %tobool.i.not.i.i.i.i.i = icmp eq i8 %4, 0
  br i1 %tobool.i.not.i.i.i.i.i, label %if.else.i.i.i.i.i.i, label %if.then.i.i.i.i.i.i

if.then.i.i.i.i.i.i:                              ; preds = %if.then.i.i.i.i
  %5 = load i32, ptr %_M_use_count.i.i.i.i.i, align 4
  %add.i.i.i.i.i.i = add nsw i32 %5, 1
  store i32 %add.i.i.i.i.i.i, ptr %_M_use_count.i.i.i.i.i, align 4
  br label %_ZN4cvc54SortC2ERKS0_.exit

if.else.i.i.i.i.i.i:                              ; preds = %if.then.i.i.i.i
  %6 = atomicrmw volatile add ptr %_M_use_count.i.i.i.i.i, i32 1 acq_rel, align 4
  br label %_ZN4cvc54SortC2ERKS0_.exit

_ZN4cvc54SortC2ERKS0_.exit:                       ; preds = %if.end, %if.then.i.i.i.i.i.i, %if.else.i.i.i.i.i.i
  invoke void @_ZN4cvc58internal6parser11SymbolTable8bindTypeERKNSt7__cxx1112basic_stringIcSt11char_traitsIcESaIcEEENS_4SortE(ptr noundef nonnull align 8 dereferenceable(8) %1, ptr noundef nonnull align 8 dereferenceable(32) %name, ptr noundef nonnull %agg.tmp)
          to label %invoke.cont unwind label %lpad

invoke.cont:                                      ; preds = %_ZN4cvc54SortC2ERKS0_.exit
  call void @_ZN4cvc54SortD1Ev(ptr noundef nonnull align 8 dereferenceable(24) %agg.tmp) #23
  br label %return

return:                                           ; preds = %land.lhs.true, %invoke.cont
  ret void

lpad:                                             ; preds = %_ZN4cvc54SortC2ERKS0_.exit
  %7 = landingpad { ptr, i32 }
          cleanup
  call void @_ZN4cvc54SortD1Ev(ptr noundef nonnull align 8 dereferenceable(24) %agg.tmp) #23
  resume { ptr, i32 } %7
}